SF:/home/douglas/Credence-Contracts/Credence-Contracts/contracts/credence_bond/src/lib.rs
FN:5,_RNvXs5_Cs3IJRA02knKL_13credence_bondNtNtNtCs73n0MyE6mdb_11stellar_xdr4curr9generated5ScValINtNtCsgEmfK2I1SDS_4core7convert7TryFromRNtB5_12IdentityBondE8try_from
FN:17,_RNvXsj_Cs3IJRA02knKL_13credence_bondNtNtNtCs73n0MyE6mdb_11stellar_xdr4curr9generated5ScValINtNtCsgEmfK2I1SDS_4core7convert7TryFromRNtB5_7DataKeyE8try_from
FN:28,_RNvMsq_Cs3IJRA02knKL_13credence_bondNtB5_12CredenceBond10initialize
FN:33,_RNvMsq_Cs3IJRA02knKL_13credence_bondNtB5_12CredenceBond11create_bond
FN:87,_RNvMsq_Cs3IJRA02knKL_13credence_bondNtB5_12CredenceBond15extend_duration
FN:114,_RNvMsq_Cs3IJRA02knKL_13credence_bondNtB5_12CredenceBond16renew_if_rolling
FN:57,_RNvMsq_Cs3IJRA02knKL_13credence_bondNtB5_12CredenceBond18get_identity_state
FN:97,_RNvMsq_Cs3IJRA02knKL_13credence_bondNtB5_12CredenceBond18request_withdrawal
FN:130,_RNvMsq_Cs3IJRA02knKL_13credence_bondNtB5_12CredenceBond32load_bond_and_require_owner_auth
FN:77,_RNvMsq_Cs3IJRA02knKL_13credence_bondNtB5_12CredenceBond6top_up
FN:64,_RNvMsq_Cs3IJRA02knKL_13credence_bondNtB5_12CredenceBond8withdraw
FN:147,_RNvNtCs3IJRA02knKL_13credence_bond5tests5setup
FN:390,_RNvNtCs3IJRA02knKL_13credence_bond5testss_16withdraw_success
FN:409,_RNvNtCs3IJRA02knKL_13credence_bond5testss_23extend_duration_success
FN:428,_RNvNtCs3IJRA02knKL_13credence_bond5testss_26request_withdrawal_success
FN:264,_RNvNtCs3IJRA02knKL_13credence_bond5testss_26top_up_admin_signer_panics
FN:240,_RNvNtCs3IJRA02knKL_13credence_bond5testss_26top_up_missing_auth_panics
FN:247,_RNvNtCs3IJRA02knKL_13credence_bond5testss_26top_up_wrong_signer_panics
FN:223,_RNvNtCs3IJRA02knKL_13credence_bond5testss_28withdraw_admin_signer_panics
FN:196,_RNvNtCs3IJRA02knKL_13credence_bond5testss_28withdraw_missing_auth_panics
FN:203,_RNvNtCs3IJRA02knKL_13credence_bond5testss_28withdraw_wrong_signer_panics
FN:354,_RNvNtCs3IJRA02knKL_13credence_bond5testss_30create_bond_auth_records_owner
FN:381,_RNvNtCs3IJRA02knKL_13credence_bond5testss_31create_bond_missing_auth_panics
FN:335,_RNvNtCs3IJRA02knKL_13credence_bond5testss_31owner_with_mock_auth_can_mutate
FN:448,_RNvNtCs3IJRA02knKL_13credence_bond5testss_31renew_if_rolling_expired_renews
FN:322,_RNvNtCs3IJRA02knKL_13credence_bond5testss_35extend_duration_missing_auth_panics
FN:329,_RNvNtCs3IJRA02knKL_13credence_bond5testss_36renew_if_rolling_missing_auth_panics
FN:305,_RNvNtCs3IJRA02knKL_13credence_bond5testss_38request_withdrawal_admin_signer_panics
FN:281,_RNvNtCs3IJRA02knKL_13credence_bond5testss_38request_withdrawal_missing_auth_panics
FN:288,_RNvNtCs3IJRA02knKL_13credence_bond5testss_38request_withdrawal_wrong_signer_panics
FN:376,_RNCNvNtCs3IJRA02knKL_13credence_bond5testss_30create_bond_auth_records_owner0B5_
FN:455,_RNCNvNtCs3IJRA02knKL_13credence_bond5testss_31renew_if_rolling_expired_renews0B5_
FN:61,_RNCNvMsq_Cs3IJRA02knKL_13credence_bondNtB7_12CredenceBond18get_identity_state0B7_
FN:135,_RNCNvMsq_Cs3IJRA02knKL_13credence_bondNtB7_12CredenceBond32load_bond_and_require_owner_auth0B7_
FNDA:0,_RNvXs5_Cs3IJRA02knKL_13credence_bondNtNtNtCs73n0MyE6mdb_11stellar_xdr4curr9generated5ScValINtNtCsgEmfK2I1SDS_4core7convert7TryFromRNtB5_12IdentityBondE8try_from
FNDA:0,_RNvXsj_Cs3IJRA02knKL_13credence_bondNtNtNtCs73n0MyE6mdb_11stellar_xdr4curr9generated5ScValINtNtCsgEmfK2I1SDS_4core7convert7TryFromRNtB5_7DataKeyE8try_from
FNDA:16,_RNvMsq_Cs3IJRA02knKL_13credence_bondNtB5_12CredenceBond10initialize
FNDA:18,_RNvMsq_Cs3IJRA02knKL_13credence_bondNtB5_12CredenceBond11create_bond
FNDA:2,_RNvMsq_Cs3IJRA02knKL_13credence_bondNtB5_12CredenceBond15extend_duration
FNDA:2,_RNvMsq_Cs3IJRA02knKL_13credence_bondNtB5_12CredenceBond16renew_if_rolling
FNDA:2,_RNvMsq_Cs3IJRA02knKL_13credence_bondNtB5_12CredenceBond18get_identity_state
FNDA:4,_RNvMsq_Cs3IJRA02knKL_13credence_bondNtB5_12CredenceBond18request_withdrawal
FNDA:16,_RNvMsq_Cs3IJRA02knKL_13credence_bondNtB5_12CredenceBond32load_bond_and_require_owner_auth
FNDA:4,_RNvMsq_Cs3IJRA02knKL_13credence_bondNtB5_12CredenceBond6top_up
FNDA:4,_RNvMsq_Cs3IJRA02knKL_13credence_bondNtB5_12CredenceBond8withdraw
FNDA:16,_RNvNtCs3IJRA02knKL_13credence_bond5tests5setup
FNDA:1,_RNvNtCs3IJRA02knKL_13credence_bond5testss_16withdraw_success
FNDA:1,_RNvNtCs3IJRA02knKL_13credence_bond5testss_23extend_duration_success
FNDA:1,_RNvNtCs3IJRA02knKL_13credence_bond5testss_26request_withdrawal_success
FNDA:1,_RNvNtCs3IJRA02knKL_13credence_bond5testss_26top_up_admin_signer_panics
FNDA:1,_RNvNtCs3IJRA02knKL_13credence_bond5testss_26top_up_missing_auth_panics
FNDA:1,_RNvNtCs3IJRA02knKL_13credence_bond5testss_26top_up_wrong_signer_panics
FNDA:1,_RNvNtCs3IJRA02knKL_13credence_bond5testss_28withdraw_admin_signer_panics
FNDA:1,_RNvNtCs3IJRA02knKL_13credence_bond5testss_28withdraw_missing_auth_panics
FNDA:1,_RNvNtCs3IJRA02knKL_13credence_bond5testss_28withdraw_wrong_signer_panics
FNDA:1,_RNvNtCs3IJRA02knKL_13credence_bond5testss_30create_bond_auth_records_owner
FNDA:1,_RNvNtCs3IJRA02knKL_13credence_bond5testss_31create_bond_missing_auth_panics
FNDA:1,_RNvNtCs3IJRA02knKL_13credence_bond5testss_31owner_with_mock_auth_can_mutate
FNDA:1,_RNvNtCs3IJRA02knKL_13credence_bond5testss_31renew_if_rolling_expired_renews
FNDA:1,_RNvNtCs3IJRA02knKL_13credence_bond5testss_35extend_duration_missing_auth_panics
FNDA:1,_RNvNtCs3IJRA02knKL_13credence_bond5testss_36renew_if_rolling_missing_auth_panics
FNDA:1,_RNvNtCs3IJRA02knKL_13credence_bond5testss_38request_withdrawal_admin_signer_panics
FNDA:1,_RNvNtCs3IJRA02knKL_13credence_bond5testss_38request_withdrawal_missing_auth_panics
FNDA:1,_RNvNtCs3IJRA02knKL_13credence_bond5testss_38request_withdrawal_wrong_signer_panics
FNDA:1,_RNCNvNtCs3IJRA02knKL_13credence_bond5testss_30create_bond_auth_records_owner0B5_
FNDA:1,_RNCNvNtCs3IJRA02knKL_13credence_bond5testss_31renew_if_rolling_expired_renews0B5_
FNDA:0,_RNCNvMsq_Cs3IJRA02knKL_13credence_bondNtB7_12CredenceBond18get_identity_state0B7_
FNDA:0,_RNCNvMsq_Cs3IJRA02knKL_13credence_bondNtB7_12CredenceBond32load_bond_and_require_owner_auth0B7_
FNF:34
FNH:30
DA:5,0
DA:17,0
DA:28,16
DA:29,16
DA:30,16
DA:31,16
DA:33,18
DA:34,18
DA:35,18
DA:36,18
DA:37,18
DA:38,18
DA:39,18
DA:40,18
DA:41,18
DA:43,18
DA:44,18
DA:45,18
DA:46,18
DA:47,18
DA:48,18
DA:49,18
DA:50,18
DA:51,18
DA:53,18
DA:54,18
DA:55,18
DA:57,2
DA:58,2
DA:59,2
DA:60,2
DA:61,2
DA:62,2
DA:64,4
DA:65,4
DA:66,4
DA:67,0
DA:68,4
DA:69,4
DA:70,4
DA:71,4
DA:72,4
DA:73,4
DA:74,4
DA:75,4
DA:77,4
DA:78,4
DA:79,4
DA:80,4
DA:81,4
DA:82,4
DA:83,4
DA:84,4
DA:85,4
DA:87,2
DA:88,2
DA:89,2
DA:90,2
DA:91,2
DA:92,2
DA:93,2
DA:94,2
DA:95,2
DA:97,4
DA:98,4
DA:99,4
DA:100,3
DA:101,1
DA:102,1
DA:103,0
DA:104,1
DA:105,1
DA:106,1
DA:107,1
DA:108,1
DA:109,1
DA:111,1
DA:112,1
DA:114,2
DA:115,2
DA:116,2
DA:117,1
DA:118,1
DA:119,1
DA:120,1
DA:121,1
DA:122,1
DA:123,0
DA:124,0
DA:125,0
DA:126,0
DA:127,0
DA:128,2
DA:130,16
DA:131,16
DA:132,16
DA:133,16
DA:134,16
DA:135,16
DA:136,16
DA:137,16
DA:138,16
DA:147,16
DA:148,16
DA:149,16
DA:150,16
DA:151,16
DA:152,16
DA:153,16
DA:154,16
DA:155,16
DA:156,16
DA:157,16
DA:158,16
DA:159,16
DA:160,16
DA:162,16
DA:163,16
DA:164,16
DA:165,16
DA:166,16
DA:167,16
DA:168,16
DA:169,16
DA:170,16
DA:171,16
DA:172,16
DA:174,16
DA:175,16
DA:176,16
DA:177,16
DA:179,16
DA:180,16
DA:181,16
DA:182,16
DA:183,16
DA:184,16
DA:185,16
DA:186,16
DA:187,16
DA:188,16
DA:189,16
DA:191,16
DA:192,16
DA:196,1
DA:197,1
DA:198,1
DA:199,1
DA:203,1
DA:204,1
DA:205,1
DA:206,1
DA:207,1
DA:208,1
DA:209,1
DA:210,1
DA:211,1
DA:212,1
DA:213,1
DA:214,1
DA:215,1
DA:218,1
DA:219,0
DA:223,1
DA:224,1
DA:225,1
DA:226,1
DA:227,1
DA:228,1
DA:229,1
DA:230,1
DA:231,1
DA:232,1
DA:233,1
DA:234,1
DA:235,1
DA:236,1
DA:240,1
DA:241,1
DA:242,1
DA:243,1
DA:247,1
DA:248,1
DA:249,1
DA:250,1
DA:251,1
DA:252,1
DA:253,1
DA:254,1
DA:255,1
DA:256,1
DA:257,1
DA:258,1
DA:259,1
DA:260,1
DA:264,1
DA:265,1
DA:266,1
DA:267,1
DA:268,1
DA:269,1
DA:270,1
DA:271,1
DA:272,1
DA:273,1
DA:274,1
DA:275,1
DA:276,1
DA:277,1
DA:281,1
DA:282,1
DA:283,1
DA:284,1
DA:288,1
DA:289,1
DA:290,1
DA:291,1
DA:292,1
DA:293,1
DA:294,1
DA:295,1
DA:296,1
DA:297,1
DA:298,1
DA:299,1
DA:300,1
DA:301,1
DA:305,1
DA:306,1
DA:307,1
DA:308,1
DA:309,1
DA:310,1
DA:311,1
DA:312,1
DA:313,1
DA:314,1
DA:315,1
DA:316,1
DA:317,1
DA:318,1
DA:322,1
DA:323,1
DA:324,1
DA:325,1
DA:329,1
DA:330,1
DA:331,1
DA:332,1
DA:335,1
DA:336,1
DA:338,1
DA:339,1
DA:340,1
DA:341,1
DA:342,1
DA:343,1
DA:344,1
DA:345,1
DA:346,1
DA:347,1
DA:348,1
DA:350,1
DA:351,1
DA:354,1
DA:355,1
DA:356,1
DA:357,1
DA:358,1
DA:359,1
DA:360,1
DA:361,1
DA:362,1
DA:364,1
DA:365,1
DA:366,1
DA:367,1
DA:368,1
DA:369,1
DA:370,1
DA:371,1
DA:372,1
DA:373,1
DA:374,1
DA:376,1
DA:377,1
DA:381,1
DA:382,1
DA:383,1
DA:384,1
DA:385,1
DA:386,1
DA:387,1
DA:390,1
DA:391,1
DA:393,1
DA:394,1
DA:395,1
DA:396,1
DA:397,1
DA:398,1
DA:399,1
DA:400,1
DA:401,1
DA:402,1
DA:403,1
DA:405,1
DA:406,1
DA:409,1
DA:410,1
DA:412,1
DA:413,1
DA:414,1
DA:415,1
DA:416,1
DA:417,1
DA:418,1
DA:419,1
DA:420,1
DA:421,1
DA:422,1
DA:424,1
DA:425,1
DA:428,1
DA:429,1
DA:431,1
DA:432,1
DA:433,1
DA:434,1
DA:435,1
DA:436,1
DA:437,1
DA:438,1
DA:439,1
DA:440,1
DA:441,1
DA:443,1
DA:444,1
DA:445,1
DA:448,1
DA:449,1
DA:452,1
DA:453,1
DA:454,1
DA:455,1
DA:456,1
DA:457,1
DA:459,1
DA:460,1
DA:461,1
DA:462,1
DA:463,1
DA:464,1
DA:465,1
DA:466,1
DA:467,1
DA:468,1
DA:469,1
DA:471,1
DA:472,1
DA:473,1
BRF:0
BRH:0
LF:365
LH:353
end_of_record